target datalayout = "e-m:e-p270:32:32-p271:32:32-p272:64:64-i64:64-i128:128-f80:128-n8:16:32:64-S128"
target triple = "x86_64-pc-linux-gnu"

%"class.gmx::LocalTopologyChecker::Impl" = type <{ ptr, ptr, ptr, ptr, ptr, %"class.gmx::ArrayRef", %"class.std::function", i32, [4 x i8] }>
%"class.gmx::ArrayRef" = type { %"struct.gmx::ArrayRefIter", %"struct.gmx::ArrayRefIter" }
%"struct.gmx::ArrayRefIter" = type { ptr }
%"class.std::function" = type { %"class.std::_Function_base", ptr }
%"class.std::_Function_base" = type { %"union.std::_Any_data", ptr }
%"union.std::_Any_data" = type { %"union.std::_Nocopy_types" }
%"union.std::_Nocopy_types" = type { { i64, i64 } }
%"class.gmx::LocalTopologyChecker" = type { %"class.std::unique_ptr.39" }
%"class.std::unique_ptr.39" = type { %"struct.std::__uniq_ptr_data.40" }
%"struct.std::__uniq_ptr_data.40" = type { %"class.std::__uniq_ptr_impl.41" }
%"class.std::__uniq_ptr_impl.41" = type { %"class.std::tuple.42" }
%"class.std::tuple.42" = type { %"struct.std::_Tuple_impl.43" }
%"struct.std::_Tuple_impl.43" = type { %"struct.std::_Head_base.46" }
%"struct.std::_Head_base.46" = type { ptr }
%struct.t_commrec = type <{ i8, [3 x i8], i32, i32, i32, i32, [4 x i8], ptr, ptr, i32, [4 x i8], ptr, i32, i32, %struct.gmx_nodecomm_t, %"class.std::unique_ptr.80", %"class.std::unique_ptr.88", ptr, ptr, i32, [4 x i8] }>
%struct.gmx_nodecomm_t = type { i8, ptr, i32, ptr }
%"class.std::unique_ptr.80" = type { %"struct.std::__uniq_ptr_data.81" }
%"struct.std::__uniq_ptr_data.81" = type { %"class.std::__uniq_ptr_impl.82" }
%"class.std::__uniq_ptr_impl.82" = type { %"class.std::tuple.83" }
%"class.std::tuple.83" = type { %"struct.std::_Tuple_impl.84" }
%"struct.std::_Tuple_impl.84" = type { %"struct.std::_Head_base.87" }
%"struct.std::_Head_base.87" = type { ptr }
%"class.std::unique_ptr.88" = type { %"struct.std::__uniq_ptr_data.89" }
%"struct.std::__uniq_ptr_data.89" = type { %"class.std::__uniq_ptr_impl.90" }
%"class.std::__uniq_ptr_impl.90" = type { %"class.std::tuple.91" }
%"class.std::tuple.91" = type { %"struct.std::_Tuple_impl.92" }
%"struct.std::_Tuple_impl.92" = type { %"struct.std::_Head_base.95" }
%"struct.std::_Head_base.95" = type { ptr }
%class.anon.223 = type { i8 }

@.str.8 = private unnamed_addr constant [137 x i8] c"generated/home/dtcxzyw/WorkSpace/Projects/compilers/llvm-opt-benchmark/bench/gromacs/gromacs/src/gromacs/domdec/localtopologychecker.cpp\00", align 1
@.str.24 = private unnamed_addr constant [77 x i8] c"numBondedInteractionsToReduce == impl_->expectedNumGlobalBondedInteractions_\00", align 1
@.str.25 = private unnamed_addr constant [102 x i8] c"With a single domain the number of assigned bonded interactions should always match the global number\00", align 1
@"__PRETTY_FUNCTION__._ZZN3gmx20LocalTopologyChecker28scheduleCheckOfLocalTopologyEiENK3$_0clEv" = private unnamed_addr constant [111 x i8] c"auto gmx::LocalTopologyChecker::scheduleCheckOfLocalTopology(const int)::(anonymous class)::operator()() const\00", align 1

; Function Attrs: mustprogress nounwind uwtable
define linkonce_odr noundef nonnull align 8 dereferenceable(8) ptr @_ZNSt10_Head_baseILm0EPN3gmx20LocalTopologyChecker4ImplELb0EE7_M_headERKS4_(ptr noundef nonnull align 8 dereferenceable(8) %0) #1 comdat align 2 {
  %2 = alloca ptr, align 8
  store ptr %0, ptr %2, align 8, !tbaa !87
  %3 = load ptr, ptr %2, align 8, !tbaa !87
  %4 = getelementptr inbounds nuw %"struct.std::_Head_base.46", ptr %3, i32 0, i32 0
  ret ptr %4
}

; Function Attrs: mustprogress nounwind uwtable
define linkonce_odr noundef nonnull align 8 dereferenceable(8) ptr @_ZNSt11_Tuple_implILm0EJPN3gmx20LocalTopologyChecker4ImplESt14default_deleteIS2_EEE7_M_headERKS6_(ptr noundef nonnull align 8 dereferenceable(8) %0) #1 comdat align 2 {
  %2 = alloca ptr, align 8
  store ptr %0, ptr %2, align 8, !tbaa !83
  %3 = load ptr, ptr %2, align 8, !tbaa !83
  %4 = call noundef nonnull align 8 dereferenceable(8) ptr @_ZNSt10_Head_baseILm0EPN3gmx20LocalTopologyChecker4ImplELb0EE7_M_headERKS4_(ptr noundef nonnull align 8 dereferenceable(8) %3) #17
  ret ptr %4
}

; Function Attrs: mustprogress nounwind uwtable
define linkonce_odr noundef nonnull align 8 dereferenceable(8) ptr @_ZSt12__get_helperILm0EPN3gmx20LocalTopologyChecker4ImplEJSt14default_deleteIS2_EEERKT0_RKSt11_Tuple_implIXT_EJS6_DpT1_EE(ptr noundef nonnull align 8 dereferenceable(8) %0) #1 comdat {
  %2 = alloca ptr, align 8
  store ptr %0, ptr %2, align 8, !tbaa !83
  %3 = load ptr, ptr %2, align 8, !tbaa !83
  %4 = call noundef nonnull align 8 dereferenceable(8) ptr @_ZNSt11_Tuple_implILm0EJPN3gmx20LocalTopologyChecker4ImplESt14default_deleteIS2_EEE7_M_headERKS6_(ptr noundef nonnull align 8 dereferenceable(8) %3) #17
  ret ptr %4
}

; Function Attrs: mustprogress nounwind uwtable
define linkonce_odr noundef nonnull align 8 dereferenceable(8) ptr @_ZSt3getILm0EJPN3gmx20LocalTopologyChecker4ImplESt14default_deleteIS2_EEERKNSt13tuple_elementIXT_ESt5tupleIJDpT0_EEE4typeERKSA_(ptr noundef nonnull align 8 dereferenceable(8) %0) #1 comdat {
  %2 = alloca ptr, align 8
  store ptr %0, ptr %2, align 8, !tbaa !81
  %3 = load ptr, ptr %2, align 8, !tbaa !81
  %4 = call noundef nonnull align 8 dereferenceable(8) ptr @_ZSt12__get_helperILm0EPN3gmx20LocalTopologyChecker4ImplEJSt14default_deleteIS2_EEERKT0_RKSt11_Tuple_implIXT_EJS6_DpT1_EE(ptr noundef nonnull align 8 dereferenceable(8) %3) #17
  ret ptr %4
}

; Function Attrs: mustprogress nounwind uwtable
define linkonce_odr noundef nonnull align 8 dereferenceable(8) ptr @_ZNK3gmx12ArrayRefIterIdEdeEv(ptr noundef nonnull align 8 dereferenceable(8) %0) #1 comdat align 2 {
  %2 = alloca ptr, align 8
  store ptr %0, ptr %2, align 8, !tbaa !41
  %3 = load ptr, ptr %2, align 8
  %4 = getelementptr inbounds nuw %"struct.gmx::ArrayRefIter", ptr %3, i32 0, i32 0
  %5 = load ptr, ptr %4, align 8, !tbaa !44
  ret ptr %5
}

; Function Attrs: mustprogress nounwind uwtable
define linkonce_odr noundef nonnull align 8 dereferenceable(8) ptr @_ZN3gmx12ArrayRefIterIdEpLEl(ptr noundef nonnull align 8 dereferenceable(8) %0, i64 noundef %1) #1 comdat align 2 {
  %3 = alloca ptr, align 8
  %4 = alloca i64, align 8
  store ptr %0, ptr %3, align 8, !tbaa !41
  store i64 %1, ptr %4, align 8, !tbaa !104
  %5 = load ptr, ptr %3, align 8
  %6 = load i64, ptr %4, align 8, !tbaa !104
  %7 = getelementptr inbounds nuw %"struct.gmx::ArrayRefIter", ptr %5, i32 0, i32 0
  %8 = load ptr, ptr %7, align 8, !tbaa !44
  %9 = getelementptr inbounds double, ptr %8, i64 %6
  store ptr %9, ptr %7, align 8, !tbaa !44
  ret ptr %5
}

; Function Attrs: mustprogress nounwind uwtable
define linkonce_odr noundef nonnull align 8 dereferenceable(8) ptr @_ZNK3gmx5boost14stl_interfaces2v118iterator_interfaceINS_12ArrayRefIterIdEESt26random_access_iterator_tagdRdPdlvE7derivedEv(ptr noundef nonnull align 1 dereferenceable(1) %0) #1 comdat align 2 {
  %2 = alloca ptr, align 8
  store ptr %0, ptr %2, align 8, !tbaa !147
  %3 = load ptr, ptr %2, align 8
  ret ptr %3
}

; Function Attrs: mustprogress nounwind uwtable
define linkonce_odr noundef ptr @_ZNKSt15__uniq_ptr_implIN3gmx20LocalTopologyChecker4ImplESt14default_deleteIS2_EE6_M_ptrEv(ptr noundef nonnull align 8 dereferenceable(8) %0) #1 comdat align 2 {
  %2 = alloca ptr, align 8
  store ptr %0, ptr %2, align 8, !tbaa !79
  %3 = load ptr, ptr %2, align 8
  %4 = getelementptr inbounds nuw %"class.std::__uniq_ptr_impl.41", ptr %3, i32 0, i32 0
  %5 = call noundef nonnull align 8 dereferenceable(8) ptr @_ZSt3getILm0EJPN3gmx20LocalTopologyChecker4ImplESt14default_deleteIS2_EEERKNSt13tuple_elementIXT_ESt5tupleIJDpT0_EEE4typeERKSA_(ptr noundef nonnull align 8 dereferenceable(8) %4) #17
  %6 = load ptr, ptr %5, align 8, !tbaa !4
  ret ptr %6
}

; Function Attrs: mustprogress nounwind uwtable
define linkonce_odr noundef zeroext i1 @_ZNKSt14_Function_base8_M_emptyEv(ptr noundef nonnull align 8 dereferenceable(24) %0) #1 comdat align 2 {
  %2 = alloca ptr, align 8
  store ptr %0, ptr %2, align 8, !tbaa !45
  %3 = load ptr, ptr %2, align 8
  %4 = getelementptr inbounds nuw %"class.std::_Function_base", ptr %3, i32 0, i32 1
  %5 = load ptr, ptr %4, align 8, !tbaa !48
  %6 = icmp ne ptr %5, null
  %7 = xor i1 %6, true
  ret i1 %7
}

; Function Attrs: mustprogress nounwind uwtable
define linkonce_odr noundef nonnull align 8 dereferenceable(8) ptr @_ZNK3gmx5boost14stl_interfaces2v118iterator_interfaceINS_12ArrayRefIterIdEESt26random_access_iterator_tagdRdPdlvEixIS5_EEDTcmpLclsr3stdE7declvalIRT_EEfp_declsr3stdE7declvalISC_EEEl(ptr noundef nonnull align 1 dereferenceable(1) %0, i64 noundef %1) #1 comdat align 2 {
  %3 = alloca ptr, align 8
  %4 = alloca i64, align 8
  %5 = alloca %"struct.gmx::ArrayRefIter", align 8
  store ptr %0, ptr %3, align 8, !tbaa !147
  store i64 %1, ptr %4, align 8, !tbaa !104
  %6 = load ptr, ptr %3, align 8
  call void @llvm.lifetime.start.p0(i64 8, ptr %5) #17
  %7 = call noundef nonnull align 8 dereferenceable(8) ptr @_ZNK3gmx5boost14stl_interfaces2v118iterator_interfaceINS_12ArrayRefIterIdEESt26random_access_iterator_tagdRdPdlvE7derivedEv(ptr noundef nonnull align 1 dereferenceable(1) %6) #17
  call void @llvm.memcpy.p0.p0.i64(ptr align 8 %5, ptr align 8 %7, i64 8, i1 false)
  %8 = load i64, ptr %4, align 8, !tbaa !104
  %9 = call noundef nonnull align 8 dereferenceable(8) ptr @_ZN3gmx12ArrayRefIterIdEpLEl(ptr noundef nonnull align 8 dereferenceable(8) %5, i64 noundef %8) #17
  %10 = call noundef nonnull align 8 dereferenceable(8) ptr @_ZNK3gmx12ArrayRefIterIdEdeEv(ptr noundef nonnull align 8 dereferenceable(8) %5) #17
  call void @llvm.lifetime.end.p0(i64 8, ptr %5) #17
  ret ptr %10
}

; Function Attrs: mustprogress nounwind uwtable
define linkonce_odr noundef ptr @_ZNKSt10unique_ptrIN3gmx20LocalTopologyChecker4ImplESt14default_deleteIS2_EE3getEv(ptr noundef nonnull align 8 dereferenceable(8) %0) #1 comdat align 2 {
  %2 = alloca ptr, align 8
  store ptr %0, ptr %2, align 8, !tbaa !65
  %3 = load ptr, ptr %2, align 8
  %4 = getelementptr inbounds nuw %"class.std::unique_ptr.39", ptr %3, i32 0, i32 0
  %5 = call noundef ptr @_ZNKSt15__uniq_ptr_implIN3gmx20LocalTopologyChecker4ImplESt14default_deleteIS2_EE6_M_ptrEv(ptr noundef nonnull align 8 dereferenceable(8) %4) #17
  ret ptr %5
}

; Function Attrs: mustprogress uwtable
define linkonce_odr noundef i32 @_ZNKSt8functionIFN3gmx24ObservablesReducerStatusENS0_20ReductionRequirementEEEclES2_(ptr noundef nonnull align 8 dereferenceable(32) %0, i32 noundef %1) #0 comdat align 2 {
  %3 = alloca ptr, align 8
  %4 = alloca i32, align 4
  store ptr %0, ptr %3, align 8, !tbaa !37
  store i32 %1, ptr %4, align 4, !tbaa !455
  %5 = load ptr, ptr %3, align 8
  %6 = call noundef zeroext i1 @_ZNKSt14_Function_base8_M_emptyEv(ptr noundef nonnull align 8 dereferenceable(24) %5)
  br i1 %6, label %7, label %8

7:                                                ; preds = %2
  call void @_ZSt25__throw_bad_function_callv() #21
  unreachable

8:                                                ; preds = %2
  %9 = getelementptr inbounds nuw %"class.std::function", ptr %5, i32 0, i32 1
  %10 = load ptr, ptr %9, align 8, !tbaa !39
  %11 = getelementptr inbounds nuw %"class.std::_Function_base", ptr %5, i32 0, i32 0
  %12 = call noundef i32 %10(ptr noundef nonnull align 8 dereferenceable(16) %11, ptr noundef nonnull align 4 dereferenceable(4) %4)
  ret i32 %12
}

; Function Attrs: mustprogress nounwind uwtable
define linkonce_odr noundef nonnull align 8 dereferenceable(8) ptr @_ZNK3gmx8ArrayRefIdEixEm(ptr noundef nonnull align 8 dereferenceable(16) %0, i64 noundef %1) #1 comdat align 2 {
  %3 = alloca ptr, align 8
  %4 = alloca i64, align 8
  store ptr %0, ptr %3, align 8, !tbaa !35
  store i64 %1, ptr %4, align 8, !tbaa !104
  %5 = load ptr, ptr %3, align 8
  %6 = getelementptr inbounds nuw %"class.gmx::ArrayRef", ptr %5, i32 0, i32 0
  %7 = load i64, ptr %4, align 8, !tbaa !104
  %8 = call noundef nonnull align 8 dereferenceable(8) ptr @_ZNK3gmx5boost14stl_interfaces2v118iterator_interfaceINS_12ArrayRefIterIdEESt26random_access_iterator_tagdRdPdlvEixIS5_EEDTcmpLclsr3stdE7declvalIRT_EEfp_declsr3stdE7declvalISC_EEEl(ptr noundef nonnull align 1 dereferenceable(1) %6, i64 noundef %7) #17
  ret ptr %8
}

; Function Attrs: inlinehint mustprogress uwtable
define internal void @"_ZZN3gmx20LocalTopologyChecker28scheduleCheckOfLocalTopologyEiENK3$_0clEv"(ptr noundef nonnull align 1 dereferenceable(1) %0) #6 align 2 {
  %2 = alloca ptr, align 8
  store ptr %0, ptr %2, align 8, !tbaa !60
  call void @_ZN3gmx8internal13assertHandlerEPKcS2_S2_S2_i(ptr noundef @.str.24, ptr noundef @.str.25, ptr noundef @"__PRETTY_FUNCTION__._ZZN3gmx20LocalTopologyChecker28scheduleCheckOfLocalTopologyEiENK3$_0clEv", ptr noundef @.str.8, i32 noundef 519) #21
  unreachable
}

; Function Attrs: inlinehint mustprogress nounwind uwtable
define internal noundef zeroext i1 @_ZL25havePPDomainDecompositionPK9t_commrec(ptr noundef %0) #10 {
  %2 = alloca ptr, align 8
  store ptr %0, ptr %2, align 8, !tbaa !11
  %3 = load ptr, ptr %2, align 8, !tbaa !11
  %4 = getelementptr inbounds nuw %struct.t_commrec, ptr %3, i32 0, i32 17
  %5 = load ptr, ptr %4, align 8, !tbaa !113
  %6 = icmp ne ptr %5, null
  br i1 %6, label %7, label %16

7:                                                ; preds = %1
  %8 = load ptr, ptr %2, align 8, !tbaa !11
  %9 = getelementptr inbounds nuw %struct.t_commrec, ptr %8, i32 0, i32 3
  %10 = load i32, ptr %9, align 8, !tbaa !453
  %11 = load ptr, ptr %2, align 8, !tbaa !11
  %12 = getelementptr inbounds nuw %struct.t_commrec, ptr %11, i32 0, i32 4
  %13 = load i32, ptr %12, align 4, !tbaa !454
  %14 = sub nsw i32 %10, %13
  %15 = icmp sgt i32 %14, 1
  br label %16

16:                                               ; preds = %7, %1
  %17 = phi i1 [ false, %1 ], [ %15, %7 ]
  ret i1 %17
}

; Function Attrs: mustprogress nounwind uwtable
define linkonce_odr noundef ptr @_ZNKSt10unique_ptrIN3gmx20LocalTopologyChecker4ImplESt14default_deleteIS2_EEptEv(ptr noundef nonnull align 8 dereferenceable(8) %0) #1 comdat align 2 {
  %2 = alloca ptr, align 8
  store ptr %0, ptr %2, align 8, !tbaa !65
  %3 = load ptr, ptr %2, align 8
  %4 = call noundef ptr @_ZNKSt10unique_ptrIN3gmx20LocalTopologyChecker4ImplESt14default_deleteIS2_EE3getEv(ptr noundef nonnull align 8 dereferenceable(8) %3) #17
  ret ptr %4
}

; Function Attrs: mustprogress uwtable
define void @_ZN3gmx20LocalTopologyChecker28scheduleCheckOfLocalTopologyEi(ptr noundef nonnull align 8 dereferenceable(8) %0, i32 noundef %1) #0 align 2 {
  %3 = alloca ptr, align 8
  %4 = alloca i32, align 4
  %5 = alloca %class.anon.223, align 1
  store ptr %0, ptr %3, align 8, !tbaa !49
  store i32 %1, ptr %4, align 4, !tbaa !40
  %6 = load ptr, ptr %3, align 8
  %7 = getelementptr inbounds nuw %"class.gmx::LocalTopologyChecker", ptr %6, i32 0, i32 0
  %8 = call noundef ptr @_ZNKSt10unique_ptrIN3gmx20LocalTopologyChecker4ImplESt14default_deleteIS2_EEptEv(ptr noundef nonnull align 8 dereferenceable(8) %7) #17
  %9 = getelementptr inbounds nuw %"class.gmx::LocalTopologyChecker::Impl", ptr %8, i32 0, i32 1
  %10 = load ptr, ptr %9, align 8, !tbaa !23
  %11 = call noundef zeroext i1 @_ZL25havePPDomainDecompositionPK9t_commrec(ptr noundef %10)
  br i1 %11, label %22, label %12

12:                                               ; preds = %2
  %13 = load i32, ptr %4, align 4, !tbaa !40
  %14 = getelementptr inbounds nuw %"class.gmx::LocalTopologyChecker", ptr %6, i32 0, i32 0
  %15 = call noundef ptr @_ZNKSt10unique_ptrIN3gmx20LocalTopologyChecker4ImplESt14default_deleteIS2_EEptEv(ptr noundef nonnull align 8 dereferenceable(8) %14) #17
  %16 = getelementptr inbounds nuw %"class.gmx::LocalTopologyChecker::Impl", ptr %15, i32 0, i32 7
  %17 = load i32, ptr %16, align 8, !tbaa !34
  %18 = icmp eq i32 %13, %17
  call void @llvm.lifetime.start.p0(i64 1, ptr %5) #17
  br i1 %18, label %19, label %20

19:                                               ; preds = %12
  br label %21

20:                                               ; preds = %12
  call void @"_ZZN3gmx20LocalTopologyChecker28scheduleCheckOfLocalTopologyEiENK3$_0clEv"(ptr noundef nonnull align 1 dereferenceable(1) %5)
  br label %21

21:                                               ; preds = %20, %19
  call void @llvm.lifetime.end.p0(i64 1, ptr %5) #17
  br label %33

22:                                               ; preds = %2
  %23 = load i32, ptr %4, align 4, !tbaa !40
  %24 = sitofp i32 %23 to double
  %25 = getelementptr inbounds nuw %"class.gmx::LocalTopologyChecker", ptr %6, i32 0, i32 0
  %26 = call noundef ptr @_ZNKSt10unique_ptrIN3gmx20LocalTopologyChecker4ImplESt14default_deleteIS2_EEptEv(ptr noundef nonnull align 8 dereferenceable(8) %25) #17
  %27 = getelementptr inbounds nuw %"class.gmx::LocalTopologyChecker::Impl", ptr %26, i32 0, i32 5
  %28 = call noundef nonnull align 8 dereferenceable(8) ptr @_ZNK3gmx8ArrayRefIdEixEm(ptr noundef nonnull align 8 dereferenceable(16) %27, i64 noundef 0)
  store double %24, ptr %28, align 8, !tbaa !106
  %29 = getelementptr inbounds nuw %"class.gmx::LocalTopologyChecker", ptr %6, i32 0, i32 0
  %30 = call noundef ptr @_ZNKSt10unique_ptrIN3gmx20LocalTopologyChecker4ImplESt14default_deleteIS2_EEptEv(ptr noundef nonnull align 8 dereferenceable(8) %29) #17
  %31 = getelementptr inbounds nuw %"class.gmx::LocalTopologyChecker::Impl", ptr %30, i32 0, i32 6
  %32 = call noundef i32 @_ZNKSt8functionIFN3gmx24ObservablesReducerStatusENS0_20ReductionRequirementEEEclES2_(ptr noundef nonnull align 8 dereferenceable(32) %31, i32 noundef 1)
  br label %33

33:                                               ; preds = %22, %21
  ret void
}