; Function Attrs: mustprogress uwtable
define void @_ZN3gmx20LocalTopologyChecker28scheduleCheckOfLocalTopologyEi(ptr noundef nonnull readonly align 8 captures(none) dereferenceable(8) %0, i32 noundef %1) local_unnamed_addr #0 align 2 {
  %3 = alloca i32, align 4
  %4 = load ptr, ptr %0, align 8, !tbaa !29
  %5 = getelementptr inbounds nuw i8, ptr %4, i64 8
  %6 = load ptr, ptr %5, align 8, !tbaa !9
  %7 = getelementptr inbounds nuw i8, ptr %6, i64 112
  %8 = load ptr, ptr %7, align 8, !tbaa !54
  %.not.i = icmp eq ptr %8, null
  br i1 %.not.i, label %_ZL25havePPDomainDecompositionPK9t_commrec.exit.thread, label %_ZL25havePPDomainDecompositionPK9t_commrec.exit

_ZL25havePPDomainDecompositionPK9t_commrec.exit:  ; preds = %2
  %9 = getelementptr inbounds nuw i8, ptr %6, i64 8
  %10 = load i32, ptr %9, align 8, !tbaa !233
  %11 = getelementptr inbounds nuw i8, ptr %6, i64 12
  %12 = load i32, ptr %11, align 4, !tbaa !234
  %13 = sub nsw i32 %10, %12
  %14 = icmp sgt i32 %13, 1
  br i1 %14, label %19, label %_ZL25havePPDomainDecompositionPK9t_commrec.exit.thread

_ZL25havePPDomainDecompositionPK9t_commrec.exit.thread: ; preds = %2, %_ZL25havePPDomainDecompositionPK9t_commrec.exit
  %15 = getelementptr inbounds nuw i8, ptr %4, i64 88
  %16 = load i32, ptr %15, align 8, !tbaa !24
  %17 = icmp eq i32 %1, %16
  br i1 %17, label %31, label %18

18:                                               ; preds = %_ZL25havePPDomainDecompositionPK9t_commrec.exit.thread
  tail call void @_ZN3gmx8internal13assertHandlerEPKcS2_S2_S2_i(ptr noundef nonnull @.str.24, ptr noundef nonnull @.str.25, ptr noundef nonnull @"__PRETTY_FUNCTION__._ZZN3gmx20LocalTopologyChecker28scheduleCheckOfLocalTopologyEiENK3$_0clEv", ptr noundef nonnull @.str.8, i32 noundef 519) #21
  unreachable

19:                                               ; preds = %_ZL25havePPDomainDecompositionPK9t_commrec.exit
  %20 = sitofp i32 %1 to double
  %21 = getelementptr inbounds nuw i8, ptr %4, i64 40
  %22 = load i64, ptr %21, align 8
  %23 = inttoptr i64 %22 to ptr
  store double %20, ptr %23, align 8, !tbaa !45
  call void @llvm.lifetime.start.p0(i64 4, ptr nonnull %3)
  store i32 1, ptr %3, align 4, !tbaa !235
  %24 = getelementptr inbounds nuw i8, ptr %4, i64 72
  %25 = load ptr, ptr %24, align 8, !tbaa !25
  %.not.i.i = icmp eq ptr %25, null
  br i1 %.not.i.i, label %26, label %_ZNKSt8functionIFN3gmx24ObservablesReducerStatusENS0_20ReductionRequirementEEEclES2_.exit

26:                                               ; preds = %19
  tail call void @_ZSt25__throw_bad_function_callv() #21
  unreachable

_ZNKSt8functionIFN3gmx24ObservablesReducerStatusENS0_20ReductionRequirementEEEclES2_.exit: ; preds = %19
  %27 = getelementptr inbounds nuw i8, ptr %4, i64 56
  %28 = getelementptr inbounds nuw i8, ptr %4, i64 80
  %29 = load ptr, ptr %28, align 8, !tbaa !35
  %30 = call noundef i32 %29(ptr noundef nonnull align 8 dereferenceable(32) %27, ptr noundef nonnull align 4 dereferenceable(4) %3)
  call void @llvm.lifetime.end.p0(i64 4, ptr nonnull %3)
  br label %31

31:                                               ; preds = %_ZL25havePPDomainDecompositionPK9t_commrec.exit.thread, %_ZNKSt8functionIFN3gmx24ObservablesReducerStatusENS0_20ReductionRequirementEEEclES2_.exit
  ret void
}